; Function Attrs: uwtable
define void @_ZThn8_NK6icu_7714StringReplacer19addReplacementSetToERNS_10UnicodeSetE(ptr noundef %0, ptr noundef nonnull align 8 dereferenceable(200) %1) unnamed_addr #15 align 2 {
  %3 = getelementptr inbounds nuw i8, ptr %0, i64 16
  %4 = getelementptr inbounds nuw i8, ptr %0, i64 20
  %5 = load i16, ptr %3, align 8, !tbaa !17
  %6 = icmp slt i16 %5, 0
  %7 = ashr i16 %5, 5
  %8 = sext i16 %7 to i32
  %9 = load i32, ptr %4, align 4
  %10 = select i1 %6, i32 %9, i32 %8
  %11 = icmp sgt i32 %10, 0
  br i1 %11, label %.lr.ph.i, label %_ZNK6icu_7714StringReplacer19addReplacementSetToERNS_10UnicodeSetE.exit

.lr.ph.i:                                         ; preds = %2
  %12 = getelementptr inbounds nuw i8, ptr %0, i64 8
  %13 = getelementptr inbounds nuw i8, ptr %0, i64 80
  br label %14

14:                                               ; preds = %25, %.lr.ph.i
  %.011.i = phi i32 [ 0, %.lr.ph.i ], [ %28, %25 ]
  %15 = tail call noundef i32 @_ZNK6icu_7713UnicodeString8char32AtEi(ptr noundef nonnull align 8 dereferenceable(64) %12, i32 noundef %.011.i)
  %16 = load ptr, ptr %13, align 8, !tbaa !27
  %17 = tail call noundef ptr @_ZNK6icu_7723TransliterationRuleData14lookupReplacerEi(ptr noundef nonnull align 8 dereferenceable(1168) %16, i32 noundef %15)
  %18 = icmp eq ptr %17, null
  br i1 %18, label %19, label %21

19:                                               ; preds = %14
  %20 = tail call noundef nonnull align 8 dereferenceable(200) ptr @_ZN6icu_7710UnicodeSet3addEi(ptr noundef nonnull align 8 dereferenceable(200) %1, i32 noundef %15)
  br label %25

21:                                               ; preds = %14
  %22 = load ptr, ptr %17, align 8, !tbaa !15
  %23 = getelementptr inbounds nuw i8, ptr %22, i64 32
  %24 = load ptr, ptr %23, align 8
  tail call void %24(ptr noundef nonnull align 8 dereferenceable(8) %17, ptr noundef nonnull align 8 dereferenceable(200) %1)
  br label %25

25:                                               ; preds = %21, %19
  %26 = icmp ult i32 %15, 65536
  %27 = select i1 %26, i32 1, i32 2
  %28 = add nuw nsw i32 %27, %.011.i
  %29 = load i16, ptr %3, align 8, !tbaa !17
  %30 = icmp slt i16 %29, 0
  %31 = ashr i16 %29, 5
  %32 = sext i16 %31 to i32
  %33 = load i32, ptr %4, align 4
  %34 = select i1 %30, i32 %33, i32 %32
  %35 = icmp slt i32 %28, %34
  br i1 %35, label %14, label %_ZNK6icu_7714StringReplacer19addReplacementSetToERNS_10UnicodeSetE.exit, !llvm.loop !38

_ZNK6icu_7714StringReplacer19addReplacementSetToERNS_10UnicodeSetE.exit: ; preds = %25, %2
  ret void
}